; Function Attrs: mustprogress uwtable
define noundef zeroext i1 @_ZN4dmlc2io14InputSplitBase5Chunk6AppendEPS1_m(ptr noundef nonnull align 8 dereferenceable(40) %0, ptr noundef %1, i64 noundef %2) local_unnamed_addr #3 align 2 personality ptr @__gxx_personality_v0 {
  %4 = alloca i64, align 8
  %5 = getelementptr inbounds nuw i8, ptr %0, i64 8
  %6 = load ptr, ptr %5, align 8, !tbaa !156
  %7 = load ptr, ptr %0, align 8, !tbaa !155
  %8 = ptrtoint ptr %6 to i64
  %9 = ptrtoint ptr %7 to i64
  %10 = sub i64 %8, %9
  %11 = getelementptr inbounds nuw i8, ptr %0, i64 16
  %12 = getelementptr inbounds nuw i8, ptr %0, i64 24
  %13 = load ptr, ptr %12, align 8, !tbaa !154
  %14 = load ptr, ptr %11, align 8, !tbaa !72
  %15 = ptrtoint ptr %13 to i64
  %16 = ptrtoint ptr %14 to i64
  %17 = sub i64 %15, %16
  %18 = ashr exact i64 %17, 2
  %19 = add i64 %18, %2
  %20 = icmp ugt i64 %19, %18
  br i1 %20, label %21, label %22

21:                                               ; preds = %3
  tail call void @_ZNSt6vectorIjSaIjEE17_M_default_appendEm(ptr noundef nonnull align 8 dereferenceable(24) %11, i64 noundef %2)
  %.pre = load ptr, ptr %12, align 8, !tbaa !157
  %.pre18 = load ptr, ptr %11, align 8, !tbaa !72
  br label %_ZNSt6vectorIjSaIjEE6resizeEm.exit

22:                                               ; preds = %3
  %23 = icmp ult i64 %19, %18
  br i1 %23, label %24, label %_ZNSt6vectorIjSaIjEE6resizeEm.exit

24:                                               ; preds = %22
  %25 = getelementptr inbounds nuw i32, ptr %14, i64 %19
  %.not.i.i = icmp eq ptr %13, %25
  br i1 %.not.i.i, label %_ZNSt6vectorIjSaIjEE6resizeEm.exit, label %26

26:                                               ; preds = %24
  store ptr %25, ptr %12, align 8, !tbaa !154
  br label %_ZNSt6vectorIjSaIjEE6resizeEm.exit

_ZNSt6vectorIjSaIjEE6resizeEm.exit:               ; preds = %21, %22, %24, %26
  %27 = phi ptr [ %.pre18, %21 ], [ %14, %22 ], [ %14, %24 ], [ %14, %26 ]
  %28 = phi ptr [ %.pre, %21 ], [ %13, %22 ], [ %13, %24 ], [ %25, %26 ]
  %29 = shl i64 %2, 2
  call void @llvm.lifetime.start.p0(i64 8, ptr nonnull %4) #16
  store i64 %29, ptr %4, align 8, !tbaa !32
  %30 = getelementptr inbounds i8, ptr %28, i64 -4
  store i32 0, ptr %30, align 4, !tbaa !51
  %31 = icmp eq ptr %28, %27
  %spec.select.i16 = select i1 %31, ptr null, ptr %27
  %32 = getelementptr inbounds nuw i8, ptr %spec.select.i16, i64 %10
  %33 = load ptr, ptr %1, align 8, !tbaa !53
  %34 = getelementptr inbounds nuw i8, ptr %33, i64 72
  %35 = load ptr, ptr %34, align 8
  %36 = call noundef zeroext i1 %35(ptr noundef nonnull align 8 dereferenceable(200) %1, ptr noundef %32, ptr noundef nonnull %4)
  br i1 %36, label %.lr.ph, label %_ZNSt6vectorIjSaIjEE6resizeEm.exit9.thread

.lr.ph:                                           ; preds = %_ZNSt6vectorIjSaIjEE6resizeEm.exit, %_ZNSt6vectorIjSaIjEE6resizeEm.exit9
  %37 = load i64, ptr %4, align 8, !tbaa !32
  %38 = icmp eq i64 %37, 0
  %39 = load ptr, ptr %12, align 8, !tbaa !154
  %40 = load ptr, ptr %11, align 8, !tbaa !72
  br i1 %38, label %41, label %64

41:                                               ; preds = %.lr.ph
  %42 = ptrtoint ptr %39 to i64
  %43 = ptrtoint ptr %40 to i64
  %44 = sub i64 %42, %43
  %45 = ashr exact i64 %44, 2
  %46 = ashr exact i64 %44, 1
  %47 = icmp ugt i64 %46, %45
  br i1 %47, label %48, label %50

48:                                               ; preds = %41
  %49 = sub nuw nsw i64 %46, %45
  call void @_ZNSt6vectorIjSaIjEE17_M_default_appendEm(ptr noundef nonnull align 8 dereferenceable(24) %11, i64 noundef %49)
  %.pre19 = load ptr, ptr %12, align 8, !tbaa !157
  %.pre20 = load ptr, ptr %11, align 8, !tbaa !72
  br label %_ZNSt6vectorIjSaIjEE6resizeEm.exit9

50:                                               ; preds = %41
  %51 = icmp ult i64 %46, %45
  br i1 %51, label %52, label %_ZNSt6vectorIjSaIjEE6resizeEm.exit9

52:                                               ; preds = %50
  %53 = getelementptr inbounds nuw i32, ptr %40, i64 %46
  %.not.i.i8 = icmp eq ptr %39, %53
  br i1 %.not.i.i8, label %_ZNSt6vectorIjSaIjEE6resizeEm.exit9, label %54

54:                                               ; preds = %52
  store ptr %53, ptr %12, align 8, !tbaa !154
  br label %_ZNSt6vectorIjSaIjEE6resizeEm.exit9

_ZNSt6vectorIjSaIjEE6resizeEm.exit9:              ; preds = %54, %52, %50, %48
  %55 = phi ptr [ %40, %54 ], [ %40, %52 ], [ %40, %50 ], [ %.pre20, %48 ]
  %56 = phi ptr [ %53, %54 ], [ %39, %52 ], [ %39, %50 ], [ %.pre19, %48 ]
  call void @llvm.lifetime.end.p0(i64 8, ptr nonnull %4) #16
  call void @llvm.lifetime.start.p0(i64 8, ptr nonnull %4) #16
  store i64 %29, ptr %4, align 8, !tbaa !32
  %57 = getelementptr inbounds i8, ptr %56, i64 -4
  store i32 0, ptr %57, align 4, !tbaa !51
  %58 = icmp eq ptr %56, %55
  %spec.select.i = select i1 %58, ptr null, ptr %55
  %59 = getelementptr inbounds nuw i8, ptr %spec.select.i, i64 %10
  %60 = load ptr, ptr %1, align 8, !tbaa !53
  %61 = getelementptr inbounds nuw i8, ptr %60, i64 72
  %62 = load ptr, ptr %61, align 8
  %63 = call noundef zeroext i1 %62(ptr noundef nonnull align 8 dereferenceable(200) %1, ptr noundef %59, ptr noundef nonnull %4)
  br i1 %63, label %.lr.ph, label %_ZNSt6vectorIjSaIjEE6resizeEm.exit9.thread

64:                                               ; preds = %.lr.ph
  %65 = icmp eq ptr %39, %40
  %spec.select.i10 = select i1 %65, ptr null, ptr %40
  store ptr %spec.select.i10, ptr %0, align 8, !tbaa !155
  %66 = getelementptr inbounds nuw i8, ptr %spec.select.i10, i64 %10
  %67 = getelementptr inbounds nuw i8, ptr %66, i64 %37
  store ptr %67, ptr %5, align 8, !tbaa !156
  br label %_ZNSt6vectorIjSaIjEE6resizeEm.exit9.thread

_ZNSt6vectorIjSaIjEE6resizeEm.exit9.thread:       ; preds = %_ZNSt6vectorIjSaIjEE6resizeEm.exit9, %_ZNSt6vectorIjSaIjEE6resizeEm.exit, %64
  %68 = phi i1 [ true, %64 ], [ false, %_ZNSt6vectorIjSaIjEE6resizeEm.exit ], [ false, %_ZNSt6vectorIjSaIjEE6resizeEm.exit9 ]
  call void @llvm.lifetime.end.p0(i64 8, ptr nonnull %4) #16
  ret i1 %68
}